; Function Attrs: nounwind uwtable
define void @textDestroy(ptr noundef %0) local_unnamed_addr #0 {
  %.not9 = icmp eq ptr %0, null
  br i1 %.not9, label %._crit_edge, label %.lr.ph

.lr.ph:                                           ; preds = %1, %7
  %.010 = phi ptr [ %3, %7 ], [ %0, %1 ]
  %2 = getelementptr inbounds nuw i8, ptr %.010, i64 8
  %3 = load ptr, ptr %2, align 8, !tbaa !3
  %4 = load ptr, ptr %.010, align 8, !tbaa !10
  %.not8 = icmp eq ptr %4, null
  br i1 %.not8, label %7, label %5

5:                                                ; preds = %.lr.ph
  %6 = tail call ptr @lineUnlink(ptr noundef nonnull %4) #7
  br label %7

7:                                                ; preds = %5, %.lr.ph
  tail call void @free(ptr noundef nonnull %.010) #7
  %.not = icmp eq ptr %3, null
  br i1 %.not, label %._crit_edge, label %.lr.ph

._crit_edge:                                      ; preds = %7, %1
  ret void
}